; Function Attrs: nounwind uwtable
define ptr @l_Lean_Option_get___at_Lean_profiler_threshold_getSecs___spec__1(ptr noundef %0, ptr noundef readonly captures(none) %1) local_unnamed_addr #0 {
  %3 = getelementptr inbounds nuw i8, ptr %1, i64 8
  %4 = load ptr, ptr %3, align 8, !tbaa !4
  %5 = getelementptr inbounds nuw i8, ptr %1, i64 16
  %6 = load ptr, ptr %5, align 8, !tbaa !4
  %7 = tail call ptr @l_Lean_KVMap_findCore(ptr noundef %0, ptr noundef %4) #3
  %8 = ptrtoint ptr %7 to i64
  %9 = and i64 %8, 1
  %.not.i28 = icmp eq i64 %9, 0
  br i1 %.not.i28, label %13, label %10

10:                                               ; preds = %2
  %11 = lshr i64 %8, 1
  %12 = trunc i64 %11 to i32
  br label %lean_obj_tag.exit

13:                                               ; preds = %2
  %14 = getelementptr i8, ptr %7, i64 4
  %.val.i = load i32, ptr %14, align 4
  %15 = lshr i32 %.val.i, 24
  br label %lean_obj_tag.exit

lean_obj_tag.exit:                                ; preds = %10, %13
  %.0.i = phi i32 [ %12, %10 ], [ %15, %13 ]
  %16 = icmp eq i32 %.0.i, 0
  br i1 %16, label %17, label %26

17:                                               ; preds = %lean_obj_tag.exit
  %18 = ptrtoint ptr %6 to i64
  %19 = and i64 %18, 1
  %.not47 = icmp eq i64 %19, 0
  br i1 %.not47, label %20, label %lean_inc.exit21

20:                                               ; preds = %17
  %.val.i29 = load i32, ptr %6, align 4, !tbaa !10
  %21 = icmp sgt i32 %.val.i29, 0
  br i1 %21, label %22, label %24, !prof !14

22:                                               ; preds = %20
  %23 = add nuw i32 %.val.i29, 1
  store i32 %23, ptr %6, align 4, !tbaa !10
  br label %lean_inc.exit21

24:                                               ; preds = %20
  %.not.i30 = icmp eq i32 %.val.i29, 0
  br i1 %.not.i30, label %lean_inc.exit21, label %25

25:                                               ; preds = %24
  tail call void @lean_inc_ref_cold(ptr noundef nonnull %6) #3
  br label %lean_inc.exit21

26:                                               ; preds = %lean_obj_tag.exit
  %27 = getelementptr inbounds nuw i8, ptr %7, i64 8
  %28 = load ptr, ptr %27, align 8, !tbaa !4
  %29 = ptrtoint ptr %28 to i64
  %30 = and i64 %29, 1
  %.not = icmp eq i64 %30, 0
  br i1 %.not, label %31, label %lean_inc.exit20

31:                                               ; preds = %26
  %.val.i31 = load i32, ptr %28, align 4, !tbaa !10
  %32 = icmp sgt i32 %.val.i31, 0
  br i1 %32, label %33, label %35, !prof !14

33:                                               ; preds = %31
  %34 = add nuw i32 %.val.i31, 1
  store i32 %34, ptr %28, align 4, !tbaa !10
  br label %lean_inc.exit20

35:                                               ; preds = %31
  %.not.i32 = icmp eq i32 %.val.i31, 0
  br i1 %.not.i32, label %lean_inc.exit20, label %36

36:                                               ; preds = %35
  tail call void @lean_inc_ref_cold(ptr noundef nonnull %28) #3
  br label %lean_inc.exit20

lean_inc.exit20:                                  ; preds = %36, %35, %33, %26
  br i1 %.not.i28, label %37, label %lean_dec.exit23

37:                                               ; preds = %lean_inc.exit20
  %38 = load i32, ptr %7, align 4, !tbaa !10
  %39 = icmp sgt i32 %38, 1
  br i1 %39, label %40, label %42, !prof !14

40:                                               ; preds = %37
  %41 = add nsw i32 %38, -1
  store i32 %41, ptr %7, align 4, !tbaa !10
  br label %lean_dec.exit23

42:                                               ; preds = %37
  %.not.i = icmp eq i32 %38, 0
  br i1 %.not.i, label %lean_dec.exit23, label %43

43:                                               ; preds = %42
  tail call void @lean_dec_ref_cold(ptr noundef nonnull %7) #3
  br label %lean_dec.exit23

lean_dec.exit23:                                  ; preds = %43, %42, %40, %lean_inc.exit20
  br i1 %.not, label %lean_obj_tag.exit37, label %lean_obj_tag.exit37.thread

lean_obj_tag.exit37:                              ; preds = %lean_dec.exit23
  %44 = getelementptr i8, ptr %28, i64 4
  %.val.i36 = load i32, ptr %44, align 4
  %.mask = and i32 %.val.i36, -16777216
  %45 = icmp eq i32 %.mask, 50331648
  br i1 %45, label %48, label %66

lean_obj_tag.exit37.thread:                       ; preds = %lean_dec.exit23
  %46 = and i64 %29, 8589934590
  %47 = icmp eq i64 %46, 6
  br i1 %47, label %48, label %lean_dec.exit

48:                                               ; preds = %lean_obj_tag.exit37.thread, %lean_obj_tag.exit37
  %49 = getelementptr inbounds nuw i8, ptr %28, i64 8
  %50 = load ptr, ptr %49, align 8, !tbaa !4
  %51 = ptrtoint ptr %50 to i64
  %52 = and i64 %51, 1
  %.not46 = icmp eq i64 %52, 0
  br i1 %.not46, label %53, label %lean_inc.exit19

53:                                               ; preds = %48
  %.val.i38 = load i32, ptr %50, align 4, !tbaa !10
  %54 = icmp sgt i32 %.val.i38, 0
  br i1 %54, label %55, label %57, !prof !14

55:                                               ; preds = %53
  %56 = add nuw i32 %.val.i38, 1
  store i32 %56, ptr %50, align 4, !tbaa !10
  br label %lean_inc.exit19

57:                                               ; preds = %53
  %.not.i39 = icmp eq i32 %.val.i38, 0
  br i1 %.not.i39, label %lean_inc.exit19, label %58

58:                                               ; preds = %57
  tail call void @lean_inc_ref_cold(ptr noundef nonnull %50) #3
  br label %lean_inc.exit19

lean_inc.exit19:                                  ; preds = %58, %57, %55, %48
  br i1 %.not, label %59, label %lean_inc.exit21

59:                                               ; preds = %lean_inc.exit19
  %60 = load i32, ptr %28, align 4, !tbaa !10
  %61 = icmp sgt i32 %60, 1
  br i1 %61, label %62, label %64, !prof !14

62:                                               ; preds = %59
  %63 = add nsw i32 %60, -1
  store i32 %63, ptr %28, align 4, !tbaa !10
  br label %lean_inc.exit21

64:                                               ; preds = %59
  %.not.i24 = icmp eq i32 %60, 0
  br i1 %.not.i24, label %lean_inc.exit21, label %65

65:                                               ; preds = %64
  tail call void @lean_dec_ref_cold(ptr noundef nonnull %28) #3
  br label %lean_inc.exit21

66:                                               ; preds = %lean_obj_tag.exit37
  %67 = load i32, ptr %28, align 4, !tbaa !10
  %68 = icmp sgt i32 %67, 1
  br i1 %68, label %69, label %71, !prof !14

69:                                               ; preds = %66
  %70 = add nsw i32 %67, -1
  store i32 %70, ptr %28, align 4, !tbaa !10
  br label %lean_dec.exit

71:                                               ; preds = %66
  %.not.i26 = icmp eq i32 %67, 0
  br i1 %.not.i26, label %lean_dec.exit, label %72

72:                                               ; preds = %71
  tail call void @lean_dec_ref_cold(ptr noundef nonnull %28) #3
  br label %lean_dec.exit

lean_dec.exit:                                    ; preds = %lean_obj_tag.exit37.thread, %72, %71, %69
  %73 = ptrtoint ptr %6 to i64
  %74 = and i64 %73, 1
  %.not45 = icmp eq i64 %74, 0
  br i1 %.not45, label %75, label %lean_inc.exit21

75:                                               ; preds = %lean_dec.exit
  %.val.i41 = load i32, ptr %6, align 4, !tbaa !10
  %76 = icmp sgt i32 %.val.i41, 0
  br i1 %76, label %77, label %79, !prof !14

77:                                               ; preds = %75
  %78 = add nuw i32 %.val.i41, 1
  store i32 %78, ptr %6, align 4, !tbaa !10
  br label %lean_inc.exit21

79:                                               ; preds = %75
  %.not.i42 = icmp eq i32 %.val.i41, 0
  br i1 %.not.i42, label %lean_inc.exit21, label %80

80:                                               ; preds = %79
  tail call void @lean_inc_ref_cold(ptr noundef nonnull %6) #3
  br label %lean_inc.exit21

lean_inc.exit21:                                  ; preds = %lean_dec.exit, %77, %79, %80, %lean_inc.exit19, %62, %64, %65, %17, %22, %24, %25
  %.0 = phi ptr [ %6, %25 ], [ %6, %24 ], [ %6, %22 ], [ %6, %17 ], [ %50, %65 ], [ %50, %64 ], [ %50, %62 ], [ %50, %lean_inc.exit19 ], [ %6, %80 ], [ %6, %79 ], [ %6, %77 ], [ %6, %lean_dec.exit ]
  ret ptr %.0
}